   1              		.cpu arm7tdmi
   2              		.fpu softvfp
   3              		.eabi_attribute 20, 1
   4              		.eabi_attribute 21, 1
   5              		.eabi_attribute 23, 3
   6              		.eabi_attribute 24, 1
   7              		.eabi_attribute 25, 1
   8              		.eabi_attribute 26, 1
   9              		.eabi_attribute 30, 6
  10              		.eabi_attribute 18, 4
  11              		.file	"main.c"
  21              	.Ltext0:
  22              		.file 1 "../main.c"
 2872              		.align	2
 2873              		.global	buttons_init
 2875              	buttons_init:
 2876              	.LFB0:
   1:../main.c     **** /* ficheros de cabecera */
   2:../main.c     **** #include "44blib.h"
   3:../main.c     **** #include "44b.h"
   4:../main.c     **** #include "stdio.h"
   5:../main.c     **** 
   6:../main.c     **** /* funciones externas */
   7:../main.c     **** extern void leds_off();
   8:../main.c     **** extern void led1_on();
   9:../main.c     **** //extern void leds_switch();
  10:../main.c     **** extern void sys_init();
  11:../main.c     **** extern void Eint4567_init(void);
  12:../main.c     **** 
  13:../main.c     **** int contador;
  14:../main.c     **** 
  15:../main.c     **** void buttons_init(){
 2877              		.loc 1 15 0
 2878              		.cfi_startproc
 2879              		@ Function supports interworking.
 2880              		@ args = 0, pretend = 0, frame = 0
 2881              		@ frame_needed = 1, uses_anonymous_args = 0
 2882              		@ link register save eliminated.
 2883 0000 04B02DE5 		str	fp, [sp, #-4]!
 2884              	.LCFI0:
 2885              		.cfi_def_cfa_offset 4
 2886 0004 00B08DE2 		add	fp, sp, #0
 2887              		.cfi_offset 11, -4
 2888              	.LCFI1:
 2889              		.cfi_def_cfa_register 11
  16:../main.c     **** 	rPCONG = rPCONG & ~(0x01<<12);
 2890              		.loc 1 16 0
 2891 0008 60309FE5 		ldr	r3, .L2
 2892 000c 5C209FE5 		ldr	r2, .L2
 2893 0010 002092E5 		ldr	r2, [r2, #0]
 2894 0014 012AC2E3 		bic	r2, r2, #4096
 2895 0018 002083E5 		str	r2, [r3, #0]
  17:../main.c     **** 	rPCONG = rPCONG & ~(0x01<<13);
 2896              		.loc 1 17 0
 2897 001c 4C309FE5 		ldr	r3, .L2
 2898 0020 48209FE5 		ldr	r2, .L2
 2899 0024 002092E5 		ldr	r2, [r2, #0]
 2900 0028 022AC2E3 		bic	r2, r2, #8192
 2901 002c 002083E5 		str	r2, [r3, #0]
  18:../main.c     **** 	rPCONG = rPCONG & ~(0x01<<14);
 2902              		.loc 1 18 0
 2903 0030 38309FE5 		ldr	r3, .L2
 2904 0034 34209FE5 		ldr	r2, .L2
 2905 0038 002092E5 		ldr	r2, [r2, #0]
 2906 003c 0129C2E3 		bic	r2, r2, #16384
 2907 0040 002083E5 		str	r2, [r3, #0]
  19:../main.c     **** 	rPCONG = rPCONG & ~(0x01<<15);
 2908              		.loc 1 19 0
 2909 0044 24309FE5 		ldr	r3, .L2
 2910 0048 20209FE5 		ldr	r2, .L2
 2911 004c 002092E5 		ldr	r2, [r2, #0]
 2912 0050 0229C2E3 		bic	r2, r2, #32768
 2913 0054 002083E5 		str	r2, [r3, #0]
  20:../main.c     **** 
  21:../main.c     **** 	rPUPG = 0;
 2914              		.loc 1 21 0
 2915 0058 14309FE5 		ldr	r3, .L2+4
 2916 005c 0020A0E3 		mov	r2, #0
 2917 0060 002083E5 		str	r2, [r3, #0]
  22:../main.c     **** }
 2918              		.loc 1 22 0
 2919 0064 00D08BE2 		add	sp, fp, #0
 2920 0068 04B09DE4 		ldmfd	sp!, {fp}
 2921 006c 1EFF2FE1 		bx	lr
 2922              	.L3:
 2923              		.align	2
 2924              	.L2:
 2925 0070 4000D201 		.word	30539840
 2926 0074 4800D201 		.word	30539848
 2927              		.cfi_endproc
 2928              	.LFE0:
 2930              		.align	2
 2931              		.global	Main
 2933              	Main:
 2934              	.LFB1:
  23:../main.c     **** 
  24:../main.c     **** /*Apartado 1
  25:../main.c     **** void Main(void)
  26:../main.c     **** {
  27:../main.c     **** 	//Inicializar controladores
  28:../main.c     **** 	sys_init(); // Inicializacion de la placa, interrupciones y puertos
  29:../main.c     **** 	//Establecer valor inicial de los LEDs
  30:../main.c     **** 	leds_off();
  31:../main.c     **** 	led1_on();
  32:../main.c     **** 
  33:../main.c     **** 	buttons_init();
  34:../main.c     **** 	while (1){
  35:../main.c     **** 		if ( (rPDATG & 0x00000040) == 0 || (rPDATG & 0x00000080) == 0) { // comprobamos los botones
  36:../main.c     **** 			while ( (rPDATG & 0x00000040) == 0 || (rPDATG & 0x00000080) == 0) { // esperamos a que se dejen 
  37:../main.c     **** 				DelayMs(100);
  38:../main.c     **** 			}
  39:../main.c     **** 			leds_switch();//se cambia el led
  40:../main.c     **** 			DelayMs(100);
  41:../main.c     **** 		}
  42:../main.c     **** 	}
  43:../main.c     **** }*/
  44:../main.c     **** 
  45:../main.c     **** void Main(void)
  46:../main.c     **** {
 2935              		.loc 1 46 0
 2936              		.cfi_startproc
 2937              		@ Function supports interworking.
 2938              		@ args = 0, pretend = 0, frame = 0
 2939              		@ frame_needed = 1, uses_anonymous_args = 0
 2940 0078 00482DE9 		stmfd	sp!, {fp, lr}
 2941              	.LCFI2:
 2942              		.cfi_def_cfa_offset 8
 2943 007c 04B08DE2 		add	fp, sp, #4
 2944              		.cfi_offset 14, -4
 2945              		.cfi_offset 11, -8
 2946              	.LCFI3:
 2947              		.cfi_def_cfa 11, 4
  47:../main.c     **** 	sys_init(); // Inicializacion de la placa, interrupciones y puertos
 2948              		.loc 1 47 0
 2949 0080 FEFFFFEB 		bl	sys_init
  48:../main.c     **** 	buttons_init(); // Inicializar botones
 2950              		.loc 1 48 0
 2951 0084 FEFFFFEB 		bl	buttons_init
  49:../main.c     **** 	Eint4567_init();
 2952              		.loc 1 49 0
 2953 0088 FEFFFFEB 		bl	Eint4567_init
  50:../main.c     **** 	leds_off();
 2954              		.loc 1 50 0
 2955 008c FEFFFFEB 		bl	leds_off
  51:../main.c     **** 	led1_on();
 2956              		.loc 1 51 0
 2957 0090 FEFFFFEB 		bl	led1_on
 2958              	.L5:
  52:../main.c     **** 	while (1){}
 2959              		.loc 1 52 0 discriminator 1
 2960 0094 FEFFFFEA 		b	.L5
 2961              		.cfi_endproc
 2962              	.LFE1:
 2964              	.Letext0: